target datalayout = "e-m:e-p270:32:32-p271:32:32-p272:64:64-i64:64-i128:128-f80:128-n8:16:32:64-S128"
target triple = "x86_64-pc-linux-gnu"

%struct.QemuMutex = type { %union.pthread_mutex_t, i8 }
%union.pthread_mutex_t = type { %struct.__pthread_mutex_s }
%struct.__pthread_mutex_s = type { i32, i32, i32, i32, i32, i16, i16, %struct.__pthread_internal_list }
%struct.__pthread_internal_list = type { ptr, ptr }
%struct.BlockJob = type { %struct.Job, i32, i64, %struct.RateLimit, ptr, %struct.Notifier, %struct.Notifier, %struct.Notifier, %struct.Notifier, %struct.Notifier, ptr }
%struct.Job = type { ptr, ptr, ptr, i8, i8, ptr, ptr, %struct.ProgressMeter, ptr, i32, i32, %struct.QEMUTimer, i32, i8, i8, i8, i8, i8, i8, i32, ptr, %struct.NotifierList, %struct.NotifierList, %struct.NotifierList, %struct.NotifierList, %struct.NotifierList, %struct.anon.0, ptr, %struct.anon.1 }
%struct.ProgressMeter = type { i64, i64, %struct.QemuMutex }
%struct.QEMUTimer = type { i64, ptr, ptr, ptr, ptr, i32, i32 }
%struct.NotifierList = type { %struct.anon }
%struct.anon = type { ptr }
%struct.anon.0 = type { ptr, ptr }
%struct.anon.1 = type { ptr, ptr }
%struct.RateLimit = type { %struct.QemuMutex, i64, i64, i64, i64, i64 }
%struct.Notifier = type { ptr, %struct.anon.2 }
%struct.anon.2 = type { ptr, ptr }

; Function Attrs: nounwind sspstrong uwtable
define dso_local zeroext i1 @block_job_is_internal(ptr noundef %0) #0 {
  %2 = alloca ptr, align 8
  store ptr %0, ptr %2, align 8
  %3 = load ptr, ptr %2, align 8
  %4 = getelementptr inbounds nuw %struct.BlockJob, ptr %3, i32 0, i32 0
  %5 = getelementptr inbounds nuw %struct.Job, ptr %4, i32 0, i32 0
  %6 = load ptr, ptr %5, align 8
  %7 = icmp eq ptr %6, null
  ret i1 %7
}

; Function Attrs: nounwind sspstrong uwtable
define internal void @block_job_event_ready_locked(ptr noundef %0, ptr noundef %1) #0 {
  %3 = alloca ptr, align 8
  %4 = alloca ptr, align 8
  %5 = alloca ptr, align 8
  %6 = alloca i64, align 8
  %7 = alloca i64, align 8
  %8 = alloca i32, align 4
  store ptr %0, ptr %3, align 8
  store ptr %1, ptr %4, align 8
  call void @llvm.lifetime.start.p0(i64 8, ptr %5) #12
  %9 = load ptr, ptr %4, align 8
  store ptr %9, ptr %5, align 8
  call void @llvm.lifetime.start.p0(i64 8, ptr %6) #12
  store i64 0, ptr %6, align 8, !annotation !8
  call void @llvm.lifetime.start.p0(i64 8, ptr %7) #12
  store i64 0, ptr %7, align 8, !annotation !8
  %10 = load ptr, ptr %5, align 8
  %11 = call zeroext i1 @block_job_is_internal(ptr noundef %10)
  br i1 %11, label %12, label %13

12:                                               ; preds = %2
  store i32 1, ptr %8, align 4
  br label %29

13:                                               ; preds = %2
  %14 = load ptr, ptr %5, align 8
  %15 = getelementptr inbounds nuw %struct.BlockJob, ptr %14, i32 0, i32 0
  %16 = getelementptr inbounds nuw %struct.Job, ptr %15, i32 0, i32 7
  call void @progress_get_snapshot(ptr noundef %16, ptr noundef %6, ptr noundef %7)
  %17 = load ptr, ptr %5, align 8
  %18 = getelementptr inbounds nuw %struct.BlockJob, ptr %17, i32 0, i32 0
  %19 = call i32 @job_type(ptr noundef %18)
  %20 = load ptr, ptr %5, align 8
  %21 = getelementptr inbounds nuw %struct.BlockJob, ptr %20, i32 0, i32 0
  %22 = getelementptr inbounds nuw %struct.Job, ptr %21, i32 0, i32 0
  %23 = load ptr, ptr %22, align 8
  %24 = load i64, ptr %7, align 8
  %25 = load i64, ptr %6, align 8
  %26 = load ptr, ptr %5, align 8
  %27 = getelementptr inbounds nuw %struct.BlockJob, ptr %26, i32 0, i32 2
  %28 = load i64, ptr %27, align 8
  call void @qapi_event_send_block_job_ready(i32 noundef %19, ptr noundef %23, i64 noundef %24, i64 noundef %25, i64 noundef %28)
  store i32 0, ptr %8, align 4
  br label %29

29:                                               ; preds = %13, %12
  call void @llvm.lifetime.end.p0(i64 8, ptr %7) #12
  call void @llvm.lifetime.end.p0(i64 8, ptr %6) #12
  call void @llvm.lifetime.end.p0(i64 8, ptr %5) #12
  %30 = load i32, ptr %8, align 4
  switch i32 %30, label %32 [
    i32 0, label %31
    i32 1, label %31
  ]

31:                                               ; preds = %29, %29
  ret void

32:                                               ; preds = %29
  unreachable
}