; Function Attrs: nounwind sspstrong uwtable
define internal void @block_job_event_ready_locked(ptr readnone captures(none) %0, ptr noundef %1) #0 {
  %3 = alloca i64, align 8
  %4 = alloca i64, align 8
  call void @llvm.lifetime.start.p0(i64 8, ptr nonnull %3) #8
  call void @llvm.lifetime.start.p0(i64 8, ptr nonnull %4) #8
  %5 = load ptr, ptr %1, align 8
  %6 = icmp eq ptr %5, null
  br i1 %6, label %15, label %7

7:                                                ; preds = %2
  store i64 0, ptr %3, align 8, !annotation !9
  store i64 0, ptr %4, align 8, !annotation !9
  %8 = getelementptr inbounds nuw i8, ptr %1, i64 48
  call void @progress_get_snapshot(ptr noundef nonnull %8, ptr noundef nonnull %3, ptr noundef nonnull %4) #8
  %9 = call i32 @job_type(ptr noundef nonnull %1) #8
  %10 = load ptr, ptr %1, align 8
  %11 = load i64, ptr %4, align 8
  %12 = load i64, ptr %3, align 8
  %13 = getelementptr inbounds nuw i8, ptr %1, i64 288
  %14 = load i64, ptr %13, align 8
  call void @qapi_event_send_block_job_ready(i32 noundef %9, ptr noundef %10, i64 noundef %11, i64 noundef %12, i64 noundef %14) #8
  br label %15

15:                                               ; preds = %2, %7
  call void @llvm.lifetime.end.p0(i64 8, ptr nonnull %4) #8
  call void @llvm.lifetime.end.p0(i64 8, ptr nonnull %3) #8
  ret void
}